; Function Attrs: mustprogress uwtable
define dso_local noundef ptr @_Z11btPoolAllocm(i64 noundef %size) local_unnamed_addr #2 {
entry:
  %0 = load i64, ptr getelementptr inbounds (%class.GIM_STANDARD_ALLOCATOR, ptr @g_main_allocator, i64 0, i32 0, i32 4), align 8
  %cmp6.not.i = icmp eq i64 %0, 0
  br i1 %cmp6.not.i, label %if.end.i, label %while.body.i

while.body.i:                                     ; preds = %entry, %while.body.i
  %i.07.i = phi i64 [ %inc.i, %while.body.i ], [ 0, %entry ]
  %arrayidx.i = getelementptr inbounds [16 x ptr], ptr getelementptr inbounds (%class.GIM_STANDARD_ALLOCATOR, ptr @g_main_allocator, i64 0, i32 0, i32 3, i64 0), i64 0, i64 %i.07.i
  %1 = load ptr, ptr %arrayidx.i, align 8
  %call.i = tail call noundef ptr @_ZN19btGenericMemoryPool8allocateEm(ptr noundef nonnull align 8 dereferenceable(56) %1, i64 noundef %size)
  %inc.i = add nuw i64 %i.07.i, 1
  %2 = load i64, ptr getelementptr inbounds (%class.GIM_STANDARD_ALLOCATOR, ptr @g_main_allocator, i64 0, i32 0, i32 4), align 8
  %cmp.i = icmp ult i64 %inc.i, %2
  %cmp2.i = icmp eq ptr %call.i, null
  %3 = and i1 %cmp2.i, %cmp.i
  br i1 %3, label %while.body.i, label %while.end.i, !llvm.loop !9

while.end.i:                                      ; preds = %while.body.i
  br i1 %cmp2.i, label %if.end.i, label %_ZN22btGenericPoolAllocator8allocateEm.exit

if.end.i:                                         ; preds = %while.end.i, %entry
  %4 = load i64, ptr getelementptr inbounds (%class.GIM_STANDARD_ALLOCATOR, ptr @g_main_allocator, i64 0, i32 0, i32 1), align 8
  %5 = load i64, ptr getelementptr inbounds (%class.GIM_STANDARD_ALLOCATOR, ptr @g_main_allocator, i64 0, i32 0, i32 2), align 8
  %mul.i.i.i = mul i64 %5, %4
  %cmp.not.i.i = icmp ult i64 %mul.i.i.i, %size
  br i1 %cmp.not.i.i, label %if.then4.i.i, label %if.end.i.i

if.end.i.i:                                       ; preds = %if.end.i
  %call2.i.i = tail call noundef ptr @_ZN22btGenericPoolAllocator13push_new_poolEv(ptr noundef nonnull align 8 dereferenceable(160) @g_main_allocator)
  %cmp3.i.i = icmp eq ptr %call2.i.i, null
  br i1 %cmp3.i.i, label %if.then4.i.i, label %if.end6.i.i

if.then4.i.i:                                     ; preds = %if.end.i.i, %if.end.i
  %call5.i.i = tail call noundef ptr @_Z22btAlignedAllocInternalmi(i64 noundef %size, i32 noundef 16)
  br label %_ZN22btGenericPoolAllocator8allocateEm.exit

if.end6.i.i:                                      ; preds = %if.end.i.i
  %call7.i.i = tail call noundef ptr @_ZN19btGenericMemoryPool8allocateEm(ptr noundef nonnull align 8 dereferenceable(56) %call2.i.i, i64 noundef %size)
  br label %_ZN22btGenericPoolAllocator8allocateEm.exit

_ZN22btGenericPoolAllocator8allocateEm.exit:      ; preds = %while.end.i, %if.then4.i.i, %if.end6.i.i
  %retval.0.i = phi ptr [ %call.i, %while.end.i ], [ %call5.i.i, %if.then4.i.i ], [ %call7.i.i, %if.end6.i.i ]
  ret ptr %retval.0.i
}